; Function Attrs: mustprogress nounwind uwtable
define void @_ZN9RSCoder16D2Ev(ptr nocapture noundef nonnull readonly align 8 dereferenceable(64) %0) unnamed_addr #1 align 2 {
  %2 = load ptr, ptr %0, align 8
  %3 = icmp eq ptr %2, null
  br i1 %3, label %5, label %4

4:                                                ; preds = %1
  tail call void @_ZdaPv(ptr noundef nonnull %2) #7
  br label %5

5:                                                ; preds = %4, %1
  %6 = getelementptr inbounds i8, ptr %0, i64 8
  %7 = load ptr, ptr %6, align 8
  %8 = icmp eq ptr %7, null
  br i1 %8, label %10, label %9

9:                                                ; preds = %5
  tail call void @_ZdaPv(ptr noundef nonnull %7) #7
  br label %10

10:                                               ; preds = %9, %5
  %11 = getelementptr inbounds i8, ptr %0, i64 48
  %12 = load ptr, ptr %11, align 8
  %13 = icmp eq ptr %12, null
  br i1 %13, label %15, label %14

14:                                               ; preds = %10
  tail call void @_ZdaPv(ptr noundef nonnull %12) #7
  br label %15

15:                                               ; preds = %14, %10
  %16 = getelementptr inbounds i8, ptr %0, i64 40
  %17 = load ptr, ptr %16, align 8
  %18 = icmp eq ptr %17, null
  br i1 %18, label %20, label %19

19:                                               ; preds = %15
  tail call void @_ZdaPv(ptr noundef nonnull %17) #7
  br label %20

20:                                               ; preds = %19, %15
  %21 = getelementptr inbounds i8, ptr %0, i64 32
  %22 = load ptr, ptr %21, align 8
  %23 = icmp eq ptr %22, null
  br i1 %23, label %25, label %24

24:                                               ; preds = %20
  tail call void @_ZdaPv(ptr noundef nonnull %22) #7
  br label %25

25:                                               ; preds = %24, %20
  ret void
}